; Function Attrs: mustprogress nofree norecurse nosync nounwind willreturn memory(readwrite, inaccessiblemem: none) uwtable
define dso_local void @_ZN4Luau7CodeGen6addUseERNS0_10IrFunctionENS0_4IrOpE(ptr noundef nonnull readonly align 8 captures(none) dereferenceable(624) %0, i32 %1) local_unnamed_addr #1 {
  %3 = and i32 %1, 15
  switch i32 %3, label %19 [
    i32 4, label %4
    i32 5, label %12
  ]

4:                                                ; preds = %2
  %5 = getelementptr inbounds nuw i8, ptr %0, i64 24
  %6 = lshr i32 %1, 4
  %7 = zext nneg i32 %6 to i64
  %8 = load ptr, ptr %5, align 8, !tbaa !4
  %9 = getelementptr inbounds nuw %"struct.Luau::CodeGen::IrInst", ptr %8, i64 %7, i32 10
  %10 = load i16, ptr %9, align 4, !tbaa !10
  %11 = add i16 %10, 1
  store i16 %11, ptr %9, align 4, !tbaa !10
  br label %19

12:                                               ; preds = %2
  %13 = lshr i32 %1, 4
  %14 = zext nneg i32 %13 to i64
  %15 = load ptr, ptr %0, align 8, !tbaa !22
  %16 = getelementptr inbounds nuw %"struct.Luau::CodeGen::IrBlock", ptr %15, i64 %14, i32 1
  %17 = load i16, ptr %16, align 2, !tbaa !25
  %18 = add i16 %17, 1
  store i16 %18, ptr %16, align 2, !tbaa !25
  br label %19

19:                                               ; preds = %2, %12, %4
  ret void
}